target datalayout = "e-m:e-p270:32:32-p271:32:32-p272:64:64-i64:64-i128:128-f80:128-n8:16:32:64-S128"
target triple = "x86_64-pc-linux-gnu"

%struct._zval_struct = type { %union._zend_value, %union.anon.0, %union.anon.3 }
%union._zend_value = type { i64 }
%union.anon.0 = type { i32 }
%union.anon.3 = type { i32 }
%struct._zend_refcounted_h = type { i32, %union.anon }
%union.anon = type { i32 }
%struct._php_date_obj = type { ptr, %struct._zend_object }
%struct._zend_object = type { %struct._zend_refcounted_h, i32, ptr, ptr, ptr, [1 x %struct._zval_struct] }
%struct._timelib_time = type { i64, i64, i64, i64, i64, i64, i64, i32, ptr, ptr, i32, %struct._timelib_rel_time, i64, i32, i32, i32, i32, i32, i32, i32, i32, i32 }
%struct._timelib_rel_time = type { i64, i64, i64, i64, i64, i64, i64, i32, i32, i32, i32, i64, %struct.anon.4, i32, i32 }
%struct.anon.4 = type { i32, i64 }

@date_ce_date_range_error = hidden global ptr null, align 8
@.str.40 = private unnamed_addr constant [61 x i8] c"must be a finite number between %ld and %ld.999999, %g given\00", align 1

; Function Attrs: nounwind uwtable
define internal void @php_date_set_time_fraction(ptr noundef %0, i32 noundef %1) #0 {
  %3 = alloca ptr, align 8
  %4 = alloca i32, align 4
  store ptr %0, ptr %3, align 8
  store i32 %1, ptr %4, align 4
  %5 = load i32, ptr %4, align 4
  %6 = sext i32 %5 to i64
  %7 = load ptr, ptr %3, align 8
  %8 = getelementptr inbounds %struct._timelib_time, ptr %7, i32 0, i32 6
  store i64 %6, ptr %8, align 8
  ret void
}

; Function Attrs: nounwind uwtable
define void @php_date_initialize_from_ts_long(ptr noundef %0, i64 noundef %1, i32 noundef %2) #0 {
  %4 = alloca ptr, align 8
  %5 = alloca i64, align 8
  %6 = alloca i32, align 4
  store ptr %0, ptr %4, align 8
  store i64 %1, ptr %5, align 8
  store i32 %2, ptr %6, align 4
  %7 = call ptr @timelib_time_ctor()
  %8 = load ptr, ptr %4, align 8
  %9 = getelementptr inbounds %struct._php_date_obj, ptr %8, i32 0, i32 0
  store ptr %7, ptr %9, align 8
  %10 = load ptr, ptr %4, align 8
  %11 = getelementptr inbounds %struct._php_date_obj, ptr %10, i32 0, i32 0
  %12 = load ptr, ptr %11, align 8
  %13 = getelementptr inbounds %struct._timelib_time, ptr %12, i32 0, i32 21
  store i32 1, ptr %13, align 8
  %14 = load ptr, ptr %4, align 8
  %15 = getelementptr inbounds %struct._php_date_obj, ptr %14, i32 0, i32 0
  %16 = load ptr, ptr %15, align 8
  %17 = load i64, ptr %5, align 8
  call void @timelib_unixtime2gmt(ptr noundef %16, i64 noundef %17)
  %18 = load ptr, ptr %4, align 8
  %19 = getelementptr inbounds %struct._php_date_obj, ptr %18, i32 0, i32 0
  %20 = load ptr, ptr %19, align 8
  call void @timelib_update_ts(ptr noundef %20, ptr noundef null)
  %21 = load ptr, ptr %4, align 8
  %22 = getelementptr inbounds %struct._php_date_obj, ptr %21, i32 0, i32 0
  %23 = load ptr, ptr %22, align 8
  %24 = load i32, ptr %6, align 4
  call void @php_date_set_time_fraction(ptr noundef %23, i32 noundef %24)
  ret void
}

; Function Attrs: nounwind uwtable
define zeroext i1 @php_date_initialize_from_ts_double(ptr noundef %0, double noundef %1) #0 {
  %3 = alloca i1, align 1
  %4 = alloca ptr, align 8
  %5 = alloca double, align 8
  %6 = alloca double, align 8
  %7 = alloca i64, align 8
  %8 = alloca i32, align 4
  store ptr %0, ptr %4, align 8
  store double %1, ptr %5, align 8
  %9 = load double, ptr %5, align 8
  %10 = call double @llvm.trunc.f64(double %9)
  store double %10, ptr %6, align 8
  %11 = load double, ptr %6, align 8
  %12 = call i1 @llvm.is.fpclass.f64(double %11, i32 3)
  br i1 %12, label %23, label %13

13:                                               ; preds = %2
  %14 = load double, ptr %6, align 8
  %15 = fcmp oge double %14, 0x43E0000000000000
  br i1 %15, label %19, label %16

16:                                               ; preds = %13
  %17 = load double, ptr %6, align 8
  %18 = fcmp olt double %17, 0xC3E0000000000000
  br label %19

19:                                               ; preds = %16, %13
  %20 = phi i1 [ true, %13 ], [ %18, %16 ]
  %21 = xor i1 %20, true
  %22 = xor i1 %21, true
  br label %23

23:                                               ; preds = %19, %2
  %24 = phi i1 [ true, %2 ], [ %22, %19 ]
  %25 = xor i1 %24, true
  %26 = xor i1 %25, true
  %27 = zext i1 %26 to i32
  %28 = sext i32 %27 to i64
  %29 = icmp ne i64 %28, 0
  br i1 %29, label %30, label %33

30:                                               ; preds = %23
  %31 = load ptr, ptr @date_ce_date_range_error, align 8
  %32 = load double, ptr %5, align 8
  call void (ptr, i32, ptr, ...) @zend_argument_error(ptr noundef %31, i32 noundef 1, ptr noundef @.str.40, i64 noundef -9223372036854775808, i64 noundef 9223372036854775807, double noundef %32)
  store i1 false, ptr %3, align 1
  br label %67

33:                                               ; preds = %23
  %34 = load double, ptr %6, align 8
  %35 = fptosi double %34 to i64
  store i64 %35, ptr %7, align 8
  %36 = load double, ptr %5, align 8
  %37 = call double @fmod(double noundef %36, double noundef 1.000000e+00) #13
  %38 = fmul double %37, 1.000000e+06
  %39 = fptosi double %38 to i32
  store i32 %39, ptr %8, align 4
  %40 = load i32, ptr %8, align 4
  %41 = icmp slt i32 %40, 0
  %42 = xor i1 %41, true
  %43 = xor i1 %42, true
  %44 = zext i1 %43 to i32
  %45 = sext i32 %44 to i64
  %46 = icmp ne i64 %45, 0
  br i1 %46, label %47, label %63

47:                                               ; preds = %33
  %48 = load i64, ptr %7, align 8
  %49 = icmp eq i64 %48, -9223372036854775808
  %50 = xor i1 %49, true
  %51 = xor i1 %50, true
  %52 = zext i1 %51 to i32
  %53 = sext i32 %52 to i64
  %54 = icmp ne i64 %53, 0
  br i1 %54, label %55, label %58

55:                                               ; preds = %47
  %56 = load ptr, ptr @date_ce_date_range_error, align 8
  %57 = load double, ptr %5, align 8
  call void (ptr, i32, ptr, ...) @zend_argument_error(ptr noundef %56, i32 noundef 1, ptr noundef @.str.40, i64 noundef -9223372036854775808, i64 noundef 9223372036854775807, double noundef %57)
  store i1 false, ptr %3, align 1
  br label %67

58:                                               ; preds = %47
  %59 = load i64, ptr %7, align 8
  %60 = sub nsw i64 %59, 1
  store i64 %60, ptr %7, align 8
  %61 = load i32, ptr %8, align 4
  %62 = add nsw i32 1000000, %61
  store i32 %62, ptr %8, align 4
  br label %63

63:                                               ; preds = %58, %33
  %64 = load ptr, ptr %4, align 8
  %65 = load i64, ptr %7, align 8
  %66 = load i32, ptr %8, align 4
  call void @php_date_initialize_from_ts_long(ptr noundef %64, i64 noundef %65, i32 noundef %66)
  store i1 true, ptr %3, align 1
  br label %67

67:                                               ; preds = %63, %55, %30
  %68 = load i1, ptr %3, align 1
  ret i1 %68
}