; Function Attrs: nounwind uwtable
define noundef zeroext i1 @php_date_initialize_from_ts_double(ptr nocapture noundef %0, double noundef %1) local_unnamed_addr #0 {
  %3 = tail call double @llvm.trunc.f64(double %1)
  %4 = fcmp uno double %3, 0.000000e+00
  br i1 %4, label %.critedge, label %5

5:                                                ; preds = %2
  %6 = fcmp oge double %3, 0x43E0000000000000
  %7 = fcmp olt double %3, 0xC3E0000000000000
  %8 = or i1 %6, %7
  br i1 %8, label %.critedge, label %10

.critedge:                                        ; preds = %2, %5
  %9 = load ptr, ptr @date_ce_date_range_error, align 8
  tail call void (ptr, i32, ptr, ...) @zend_argument_error(ptr noundef %9, i32 noundef 1, ptr noundef nonnull @.str.40, i64 noundef -9223372036854775808, i64 noundef 9223372036854775807, double noundef %1) #25
  br label %31

10:                                               ; preds = %5
  %11 = fptosi double %3 to i64
  %12 = tail call double @fmod(double noundef %1, double noundef 1.000000e+00) #25
  %13 = fmul double %12, 1.000000e+06
  %14 = fptosi double %13 to i32
  %15 = icmp slt i32 %14, 0
  br i1 %15, label %16, label %23

16:                                               ; preds = %10
  %17 = icmp eq i64 %11, -9223372036854775808
  br i1 %17, label %18, label %20

18:                                               ; preds = %16
  %19 = load ptr, ptr @date_ce_date_range_error, align 8
  tail call void (ptr, i32, ptr, ...) @zend_argument_error(ptr noundef %19, i32 noundef 1, ptr noundef nonnull @.str.40, i64 noundef -9223372036854775808, i64 noundef 9223372036854775807, double noundef %1) #25
  br label %31

20:                                               ; preds = %16
  %21 = add nsw i64 %11, -1
  %22 = add nsw i32 %14, 1000000
  br label %23

23:                                               ; preds = %20, %10
  %.015 = phi i64 [ %21, %20 ], [ %11, %10 ]
  %.0 = phi i32 [ %22, %20 ], [ %14, %10 ]
  %24 = tail call ptr @timelib_time_ctor() #25
  store ptr %24, ptr %0, align 8
  %25 = getelementptr inbounds i8, ptr %24, i64 232
  store i32 1, ptr %25, align 8
  %26 = load ptr, ptr %0, align 8
  tail call void @timelib_unixtime2gmt(ptr noundef %26, i64 noundef %.015) #25
  %27 = load ptr, ptr %0, align 8
  tail call void @timelib_update_ts(ptr noundef %27, ptr noundef null) #25
  %28 = load ptr, ptr %0, align 8
  %29 = sext i32 %.0 to i64
  %30 = getelementptr inbounds i8, ptr %28, i64 48
  store i64 %29, ptr %30, align 8
  br label %31

31:                                               ; preds = %23, %18, %.critedge
  %.016 = phi i1 [ false, %.critedge ], [ false, %18 ], [ true, %23 ]
  ret i1 %.016
}